ARM GAS  C:\Users\Henry\AppData\Local\Temp\cc3YIK1a.s 			page 1


   1              		.cpu cortex-m0
   2              		.fpu softvfp
   3              		.eabi_attribute 20, 1
   4              		.eabi_attribute 21, 1
   5              		.eabi_attribute 23, 3
   6              		.eabi_attribute 24, 1
   7              		.eabi_attribute 25, 1
   8              		.eabi_attribute 26, 1
   9              		.eabi_attribute 30, 1
  10              		.eabi_attribute 34, 0
  11              		.eabi_attribute 18, 4
  12              		.code	16
  13              		.file	"main.c"
  14              		.text
  15              	.Ltext0:
  16              		.cfi_sections	.debug_frame
  17              		.section	.text.Shifter_ISR,"ax",%progbits
  18              		.align	2
  19              		.global	Shifter_ISR
  20              		.code	16
  21              		.thumb_func
  22              		.type	Shifter_ISR, %function
  23              	Shifter_ISR:
  24              	.LFB36:
  25              		.file 1 ".\\main.c"
   1:.\main.c      **** /* ========================================
   2:.\main.c      ****  *
   3:.\main.c      ****  * Copyright YOUR COMPANY, THE YEAR
   4:.\main.c      ****  * All Rights Reserved
   5:.\main.c      ****  * UNPUBLISHED, LICENSED SOFTWARE.
   6:.\main.c      ****  *
   7:.\main.c      ****  * CONFIDENTIAL AND PROPRIETARY INFORMATION
   8:.\main.c      ****  * WHICH IS THE PROPERTY OF your company.
   9:.\main.c      ****  *
  10:.\main.c      ****  * ========================================
  11:.\main.c      **** */
  12:.\main.c      **** #include <project.h>
  13:.\main.c      **** #include <stdint.h>
  14:.\main.c      **** #include <stdlib.h>
  15:.\main.c      **** #include <stdio.h>
  16:.\main.c      **** #include <strings.h>
  17:.\main.c      **** #include <project.h>
  18:.\main.c      **** 
  19:.\main.c      **** #define NORMAL = 0x0
  20:.\main.c      **** #define TUNING = 0x1
  21:.\main.c      **** 
  22:.\main.c      **** #define STOP 0x00
  23:.\main.c      **** #define ALL_ON 0x00
  24:.\main.c      **** #define FRONT_UP 0x01
  25:.\main.c      **** #define FRONT_DN 0x02
  26:.\main.c      **** #define REAR_UP 0x01
  27:.\main.c      **** #define REAR_DN 0x02
  28:.\main.c      **** 
  29:.\main.c      **** #define ADDRESS1 0x50      /* Address of the EEPROM slave */
  30:.\main.c      **** 
  31:.\main.c      **** int shift_isr_status = 0x0u;
  32:.\main.c      **** 
ARM GAS  C:\Users\Henry\AppData\Local\Temp\cc3YIK1a.s 			page 2


  33:.\main.c      **** /* Initialize the interrupt fuction prototype */
  34:.\main.c      **** CY_ISR_PROTO(Shifter_ISR); 
  35:.\main.c      **** 
  36:.\main.c      **** 
  37:.\main.c      **** void EEPROM_Write(uint8* Data, int numBytes);
  38:.\main.c      **** void EEPROM_Read(uint8* Data, int numBytes);
  39:.\main.c      **** 
  40:.\main.c      **** char bufferUART[20] = {};
  41:.\main.c      **** 
  42:.\main.c      **** typedef struct FrontDerailleur
  43:.\main.c      **** {   
  44:.\main.c      ****     uint8 position; // Binary position, 0 for small, 1 for large chainring.
  45:.\main.c      ****     uint16 current_pos; // Quad encoder value for current/last saved position.
  46:.\main.c      ****     uint16 tuned_pos[2]; // Tuned quad encoder values for small and large chainring positions
  47:.\main.c      ****     uint16 eep_offset; // FD EEPROM offset save address.
  48:.\main.c      **** } frntder;
  49:.\main.c      **** 
  50:.\main.c      **** frntder frontDerailInit(uint8* dataI2C);
  51:.\main.c      **** void frontDerailToData(uint8* dataI2C, frntder fd);
  52:.\main.c      **** 
  53:.\main.c      **** int main()
  54:.\main.c      **** {
  55:.\main.c      ****     int mode = 0;
  56:.\main.c      ****     
  57:.\main.c      ****     /* UART buffer to store output to console */
  58:.\main.c      ****     char bufferUART[20] = {};
  59:.\main.c      ****     
  60:.\main.c      ****     uint8 dataI2C[] = {};
  61:.\main.c      ****     
  62:.\main.c      ****     
  63:.\main.c      ****     uint8 temp[] = {};
  64:.\main.c      ****     temp[0] = 0;
  65:.\main.c      ****     temp[1] = (uint8)((int)32767 >> 8);
  66:.\main.c      ****     temp[2] = (uint8)((int)32767 & 0xff);
  67:.\main.c      ****     temp[3] = (uint8)((int)(32767-1000) >> 8);
  68:.\main.c      ****     temp[4] = (uint8)((int)(32767-1000) & 0xff);
  69:.\main.c      ****     temp[5] = (uint8)((int)(32767+1000) >> 8);
  70:.\main.c      ****     temp[6] = (uint8)((int)(32767+1000) & 0xff);
  71:.\main.c      ****     
  72:.\main.c      **** 
  73:.\main.c      ****     /* Set up interrupt vector address for function */
  74:.\main.c      ****     shifter_isr_StartEx(Shifter_ISR);
  75:.\main.c      ****     
  76:.\main.c      ****     CyGlobalIntEnable; /* Enable global interrupts. */
  77:.\main.c      **** 
  78:.\main.c      ****     /* Place your initialization/startup code here (e.g. MyInst_Start()) */
  79:.\main.c      ****     /* Init the UART module for console debugging */
  80:.\main.c      ****     UART_Start();  
  81:.\main.c      ****     UART_UartPutString("PSoC UART Communication Established\n\r");
  82:.\main.c      ****     
  83:.\main.c      ****     I2C_Start();
  84:.\main.c      ****     
  85:.\main.c      ****     /* Startup of the PWM block */
  86:.\main.c      ****     PWM_Start();
  87:.\main.c      ****     PWM_WriteCompare1(255u);
  88:.\main.c      ****     PWM_WriteCompare2(255u);
  89:.\main.c      ****     
ARM GAS  C:\Users\Henry\AppData\Local\Temp\cc3YIK1a.s 			page 3


  90:.\main.c      ****     /* Startup of the quadrature decoder block for front derailleur */
  91:.\main.c      ****     QuadDec_Start(); 
  92:.\main.c      ****     QuadDec_TriggerCommand(QuadDec_MASK, QuadDec_CMD_RELOAD);  
  93:.\main.c      ****         
  94:.\main.c      ****     ADC_SAR_SEQ_Start();
  95:.\main.c      ****     ADC_SAR_SEQ_StartConvert();
  96:.\main.c      ****     
  97:.\main.c      ****     //EEPROM_Write(temp, 2);  
  98:.\main.c      ****     EEPROM_Read(dataI2C, 7);
  99:.\main.c      ****     
 100:.\main.c      ****     frntder frontd;
 101:.\main.c      ****     frontd = frontDerailInit(dataI2C);
 102:.\main.c      ****     
 103:.\main.c      ****     sprintf(bufferUART, "%d, %d, %d, %d\n\r", frontd.position, frontd.current_pos, frontd.tuned_pos
 104:.\main.c      ****     UART_UartPutString(bufferUART);
 105:.\main.c      ****     
 106:.\main.c      ****     //sprintf(bufferUART, "New Params - current pos: %d, small: %d, large, %d\n\r", frontd.current_
 107:.\main.c      ****     //UART_UartPutString(bufferUART);
 108:.\main.c      ****     
 109:.\main.c      ****     while(mode == 0)
 110:.\main.c      ****     {
 111:.\main.c      **** 
 112:.\main.c      ****         /* Check for the shifter interrupt status variable for shift commands */
 113:.\main.c      ****         // Front derailleur shift down
 114:.\main.c      ****         if(shift_isr_status & (1 << 0))
 115:.\main.c      ****         { 
 116:.\main.c      ****             if (frontd.position >= 1)
 117:.\main.c      ****             {
 118:.\main.c      ****                 UART_UartPutString("HI\n\r");
 119:.\main.c      ****                 frontd.position= 1;
 120:.\main.c      ****                 shift_isr_status &= 0xC;
 121:.\main.c      ****             }
 122:.\main.c      ****             else
 123:.\main.c      ****             {   
 124:.\main.c      ****                 front_motor_Write(FRONT_UP);
 125:.\main.c      ****                 if(QuadDec_ReadCounter() >= frontd.tuned_pos[1])
 126:.\main.c      ****                 {  
 127:.\main.c      ****                     front_motor_Write(STOP);
 128:.\main.c      ****                     frontd.current_pos = QuadDec_ReadCounter();
 129:.\main.c      ****                     shift_isr_status &= 0xC;
 130:.\main.c      ****                     frontd.position ++;
 131:.\main.c      ****                     
 132:.\main.c      ****                     UART_UartPutString("FRONT UP\n\r");
 133:.\main.c      ****                     sprintf(bufferUART, "%d, %d, %d\n\r", frontd.position, frontd.current_pos, fron
 134:.\main.c      ****                     UART_UartPutString(bufferUART);
 135:.\main.c      ****                 }         
 136:.\main.c      ****             } 
 137:.\main.c      ****             frontDerailToData(dataI2C, frontd);
 138:.\main.c      ****             EEPROM_Write(dataI2C, 7);
 139:.\main.c      ****         } 
 140:.\main.c      ****         // Front derailleur shift up
 141:.\main.c      ****         else if (shift_isr_status & (1 << 1))
 142:.\main.c      ****         {
 143:.\main.c      ****             if(frontd.position == 0)
 144:.\main.c      ****             {
 145:.\main.c      ****                 frontd.position = 0;
 146:.\main.c      ****                 shift_isr_status &= 0xC;
ARM GAS  C:\Users\Henry\AppData\Local\Temp\cc3YIK1a.s 			page 4


 147:.\main.c      ****             }
 148:.\main.c      ****             else
 149:.\main.c      ****             {      
 150:.\main.c      ****                 front_motor_Write(FRONT_DN);
 151:.\main.c      ****                 if (QuadDec_ReadCounter() <= frontd.tuned_pos[0])
 152:.\main.c      ****                 {
 153:.\main.c      ****                     front_motor_Write(STOP);
 154:.\main.c      ****                     frontd.current_pos = QuadDec_ReadCounter();
 155:.\main.c      ****                     shift_isr_status &= 0xC;
 156:.\main.c      ****                     frontd.position --;
 157:.\main.c      ****                     
 158:.\main.c      ****                     UART_UartPutString("FRONT DN\n\r");
 159:.\main.c      ****                     sprintf(bufferUART, "%d, %d, %d\n\r", frontd.position, frontd.current_pos, fron
 160:.\main.c      ****                     UART_UartPutString(bufferUART);
 161:.\main.c      ****                 }
 162:.\main.c      ****                 frontDerailToData(dataI2C, frontd);
 163:.\main.c      ****                 EEPROM_Write(dataI2C, 7);
 164:.\main.c      ****             } 
 165:.\main.c      ****         }
 166:.\main.c      ****         
 167:.\main.c      ****         /*
 168:.\main.c      ****         // Rear derailleur shift up
 169:.\main.c      ****         else if (shift_isr_status & (1 << 2))
 170:.\main.c      ****         {
 171:.\main.c      ****             rear_motor_Write(REAR_UP);
 172:.\main.c      ****             if (ADC_SAR_SEQ_GetResult16(0x00) >= (int16)1500)
 173:.\main.c      ****             {
 174:.\main.c      ****                 rear_motor_Write(STOP);
 175:.\main.c      ****                 shift_isr_status &= 0x3;
 176:.\main.c      ****                 sprintf(bufferUART, "%d, %d\n\r", ADC_SAR_SEQ_GetResult16(0x00), 1500);
 177:.\main.c      ****             }
 178:.\main.c      ****             // Check the least significant nibble for the maximum allowed value
 179:.\main.c      ****             if ((shifter_pos & 0x0fu) > 0x0Cu)
 180:.\main.c      ****             {
 181:.\main.c      ****                 shifter_pos &= 0xfC;
 182:.\main.c      ****             }
 183:.\main.c      ****             // Otherwise increment the least significant nibble
 184:.\main.c      ****             else
 185:.\main.c      ****             {
 186:.\main.c      ****                 shifter_pos += 1;
 187:.\main.c      ****             }
 188:.\main.c      ****             dataI2C[0] = shifter_pos;
 189:.\main.c      ****             EEPROM_Write(dataI2C, 15);
 190:.\main.c      ****         }
 191:.\main.c      ****         // Rear derailleur shift down
 192:.\main.c      ****         else if (shift_isr_status & (1 << 3))
 193:.\main.c      ****         {
 194:.\main.c      ****             rear_motor_Write(REAR_DN);
 195:.\main.c      ****             if (ADC_SAR_SEQ_GetResult16(0x00) <= (int16)500)
 196:.\main.c      ****             {
 197:.\main.c      ****                 rear_motor_Write(STOP);
 198:.\main.c      ****                 shift_isr_status &= 0x3;
 199:.\main.c      ****                 sprintf(bufferUART, "%d, %d\n\r", ADC_SAR_SEQ_GetResult16(0x00), 500);
 200:.\main.c      ****             }
 201:.\main.c      ****             // Check least significant nibble for lowest position or overflow
 202:.\main.c      ****             if ((shifter_pos & 0x0fu) == 0x00u)
 203:.\main.c      ****             {
ARM GAS  C:\Users\Henry\AppData\Local\Temp\cc3YIK1a.s 			page 5


 204:.\main.c      ****                 shifter_pos &= 0xf0u;
 205:.\main.c      ****             }
 206:.\main.c      ****             else if ((shifter_pos & 0x0fu) >= 11u)
 207:.\main.c      ****             {
 208:.\main.c      ****                 shifter_pos &= 0xf0u;
 209:.\main.c      ****             }
 210:.\main.c      ****             // Otherwise decrement the least significant nibble
 211:.\main.c      ****             else
 212:.\main.c      ****             {
 213:.\main.c      ****                 shifter_pos -= 1;
 214:.\main.c      ****             }
 215:.\main.c      ****             dataI2C[0] = shifter_pos;
 216:.\main.c      ****             EEPROM_Write(dataI2C, 15);
 217:.\main.c      ****         
 218:.\main.c      ****         }
 219:.\main.c      ****         */
 220:.\main.c      ****     }
 221:.\main.c      ****     int count = 0;
 222:.\main.c      ****     while (mode == 1)
 223:.\main.c      ****     {
 224:.\main.c      ****         // Var to keep track of tuning steps
 225:.\main.c      ****         
 226:.\main.c      ****         // Inital output of user instructions
 227:.\main.c      ****         if (count == 0)
 228:.\main.c      ****         {
 229:.\main.c      ****             UART_UartPutString("Small Chainring, Press SPACE to set position!!!\n\r");
 230:.\main.c      ****             frontd.current_pos = QuadDec_ReadCounter();
 231:.\main.c      ****             frontd.position = 0;
 232:.\main.c      ****             count = 1;
 233:.\main.c      ****         }
 234:.\main.c      ****         
 235:.\main.c      ****         // Poll for the SPACE key input to set front derailleur tuning paramteters. 
 236:.\main.c      ****         char input = UART_UartGetChar();
 237:.\main.c      ****         if (input == 0x20)
 238:.\main.c      ****         {
 239:.\main.c      ****             if (count == 1)
 240:.\main.c      ****             {
 241:.\main.c      ****                 frontd.tuned_pos[0] = frontd.current_pos;
 242:.\main.c      ****                 frontd.position = 0;
 243:.\main.c      ****                 frontDerailToData(dataI2C, frontd);
 244:.\main.c      ****                 EEPROM_Write(dataI2C, 7);
 245:.\main.c      ****                 count = 2;
 246:.\main.c      ****                 sprintf(bufferUART, "Small Chainring Position Set: %d\n\r", frontd.tuned_pos[0]);
 247:.\main.c      ****                 UART_UartPutString(bufferUART);
 248:.\main.c      ****                 UART_UartPutString("Large Chainring, Press SPACE to set position\n\r");
 249:.\main.c      ****                 frontd.position = 1;
 250:.\main.c      ****                 
 251:.\main.c      ****             }
 252:.\main.c      ****             else if (count == 2)
 253:.\main.c      ****             {
 254:.\main.c      ****                 frontd.tuned_pos[1] = frontd.current_pos;
 255:.\main.c      ****                 frontd.position = 1;
 256:.\main.c      ****                 frontDerailToData(dataI2C, frontd);
 257:.\main.c      ****                 EEPROM_Write(dataI2C, 7);
 258:.\main.c      ****                 count = 3;
 259:.\main.c      ****                 sprintf(bufferUART, "Large Chainring Position Set: %d\n\r", frontd.tuned_pos[1]);
 260:.\main.c      ****                 UART_UartPutString(bufferUART);
ARM GAS  C:\Users\Henry\AppData\Local\Temp\cc3YIK1a.s 			page 6


 261:.\main.c      ****                 UART_UartPutString("Tuning Complete, Press SPACE to finish\n\r");
 262:.\main.c      ****                 sprintf(bufferUART, "%d, %d, %d, %d\n\r", frontd.position, frontd.current_pos, fron
 263:.\main.c      ****                 UART_UartPutString(bufferUART);
 264:.\main.c      ****             }
 265:.\main.c      ****             else if (count == 3)
 266:.\main.c      ****             {
 267:.\main.c      ****             }
 268:.\main.c      ****         }
 269:.\main.c      ****         
 270:.\main.c      ****         if(shift_isr_status & (1 << 0))
 271:.\main.c      ****         {
 272:.\main.c      ****             front_motor_Write(FRONT_UP);
 273:.\main.c      ****             CyDelay(100);
 274:.\main.c      ****             front_motor_Write(STOP);
 275:.\main.c      ****             frontd.current_pos = QuadDec_ReadCounter();
 276:.\main.c      ****             shift_isr_status &= 0xC;
 277:.\main.c      ****             sprintf(bufferUART, "%d, %d, %d, %d\n\r", frontd.position, frontd.current_pos, frontd.t
 278:.\main.c      ****             UART_UartPutString(bufferUART);
 279:.\main.c      ****         }
 280:.\main.c      ****         if(shift_isr_status & (1 << 1))
 281:.\main.c      ****         {
 282:.\main.c      ****             front_motor_Write(FRONT_DN);
 283:.\main.c      ****             CyDelay(100);
 284:.\main.c      ****             front_motor_Write(STOP);
 285:.\main.c      ****             frontd.current_pos = QuadDec_ReadCounter();
 286:.\main.c      ****             shift_isr_status &= 0xC;
 287:.\main.c      ****             sprintf(bufferUART, "%d, %d, %d, %d\n\r", frontd.position, frontd.current_pos, frontd.t
 288:.\main.c      ****             UART_UartPutString(bufferUART);
 289:.\main.c      ****         }
 290:.\main.c      ****     }
 291:.\main.c      **** }
 292:.\main.c      **** 
 293:.\main.c      **** /* ISR for Shifter commands after gpio_isr is triggered */
 294:.\main.c      **** CY_ISR(Shifter_ISR)
 295:.\main.c      **** {
  26              		.loc 1 295 0
  27              		.cfi_startproc
  28 0000 08B5     		push	{r3, lr}
  29              		.cfi_def_cfa_offset 8
  30              		.cfi_offset 3, -8
  31              		.cfi_offset 14, -4
 296:.\main.c      ****     /* Clear pending interupts from gpio_isr */
 297:.\main.c      ****     shifter_isr_ClearPending();
  32              		.loc 1 297 0
  33 0002 FFF7FEFF 		bl	shifter_isr_ClearPending
  34              	.LVL0:
 298:.\main.c      ****     
 299:.\main.c      ****     shift_isr_status &= 0;
  35              		.loc 1 299 0
  36 0006 0022     		mov	r2, #0
  37 0008 134B     		ldr	r3, .L7
  38 000a 1A60     		str	r2, [r3]
 300:.\main.c      ****     /* Check shifter_switches interrupt status register to see which interrupt is
 301:.\main.c      ****     being triggered. */
 302:.\main.c      ****     if(shifter_switches_INTSTAT & (1u << shifter_switches_SHIFT))
  39              		.loc 1 302 0
  40 000c 134B     		ldr	r3, .L7+4
ARM GAS  C:\Users\Henry\AppData\Local\Temp\cc3YIK1a.s 			page 7


  41 000e 1B68     		ldr	r3, [r3]
  42 0010 DB07     		lsl	r3, r3, #31
  43 0012 03D5     		bpl	.L2
 303:.\main.c      ****     {
 304:.\main.c      ****         shift_isr_status &= 0xC;
 305:.\main.c      ****         shift_isr_status |= (1 << 0);
  44              		.loc 1 305 0
  45 0014 0132     		add	r2, r2, #1
  46 0016 104B     		ldr	r3, .L7
  47 0018 1A60     		str	r2, [r3]
  48 001a 1AE0     		b	.L3
  49              	.L2:
 306:.\main.c      ****     }
 307:.\main.c      ****     else if (shifter_switches_INTSTAT & (2u << shifter_switches_SHIFT))
  50              		.loc 1 307 0
  51 001c 0F4B     		ldr	r3, .L7+4
  52 001e 1B68     		ldr	r3, [r3]
  53 0020 9B07     		lsl	r3, r3, #30
  54 0022 03D5     		bpl	.L4
 308:.\main.c      ****     {
 309:.\main.c      ****         shift_isr_status &= 0xC;
 310:.\main.c      ****         shift_isr_status |= (1 << 1);
  55              		.loc 1 310 0
  56 0024 0222     		mov	r2, #2
  57 0026 0C4B     		ldr	r3, .L7
  58 0028 1A60     		str	r2, [r3]
  59 002a 12E0     		b	.L3
  60              	.L4:
 311:.\main.c      ****     }
 312:.\main.c      ****     else if (shifter_switches_INTSTAT & (4u << shifter_switches_SHIFT))
  61              		.loc 1 312 0
  62 002c 0B4B     		ldr	r3, .L7+4
  63 002e 1B68     		ldr	r3, [r3]
  64 0030 5B07     		lsl	r3, r3, #29
  65 0032 03D5     		bpl	.L5
 313:.\main.c      ****     {
 314:.\main.c      ****         shift_isr_status &= 0x3;
 315:.\main.c      ****         shift_isr_status |= (2 << 1);
  66              		.loc 1 315 0
  67 0034 0422     		mov	r2, #4
  68 0036 084B     		ldr	r3, .L7
  69 0038 1A60     		str	r2, [r3]
  70 003a 0AE0     		b	.L3
  71              	.L5:
 316:.\main.c      ****     }
 317:.\main.c      ****     else if (shifter_switches_INTSTAT & (8u << shifter_switches_SHIFT))
  72              		.loc 1 317 0
  73 003c 074B     		ldr	r3, .L7+4
  74 003e 1B68     		ldr	r3, [r3]
  75 0040 1B07     		lsl	r3, r3, #28
  76 0042 03D5     		bpl	.L6
 318:.\main.c      ****     {       
 319:.\main.c      ****         shift_isr_status &= 0x3;
 320:.\main.c      ****         shift_isr_status |= (1 << 3);
  77              		.loc 1 320 0
  78 0044 0822     		mov	r2, #8
  79 0046 044B     		ldr	r3, .L7
ARM GAS  C:\Users\Henry\AppData\Local\Temp\cc3YIK1a.s 			page 8


  80 0048 1A60     		str	r2, [r3]
  81 004a 02E0     		b	.L3
  82              	.L6:
 321:.\main.c      ****     }
 322:.\main.c      ****     else {
 323:.\main.c      ****         UART_UartPutString("COMMAND UNKNOWN!\n\r");
  83              		.loc 1 323 0
  84 004c 0448     		ldr	r0, .L7+8
  85 004e FFF7FEFF 		bl	UART_UartPutString
  86              	.LVL1:
  87              	.L3:
 324:.\main.c      ****     }
 325:.\main.c      ****     /* Clear the interupt caused by shifter_switches */
 326:.\main.c      ****     shifter_switches_ClearInterrupt(); 
  88              		.loc 1 326 0
  89 0052 FFF7FEFF 		bl	shifter_switches_ClearInterrupt
  90              	.LVL2:
 327:.\main.c      **** }
  91              		.loc 1 327 0
  92              		@ sp needed
  93 0056 08BD     		pop	{r3, pc}
  94              	.L8:
  95              		.align	2
  96              	.L7:
  97 0058 00000000 		.word	.LANCHOR0
  98 005c 10000440 		.word	1074003984
  99 0060 00000000 		.word	.LC1
 100              		.cfi_endproc
 101              	.LFE36:
 102              		.size	Shifter_ISR, .-Shifter_ISR
 103              		.section	.text.frontDerailInit,"ax",%progbits
 104              		.align	2
 105              		.global	frontDerailInit
 106              		.code	16
 107              		.thumb_func
 108              		.type	frontDerailInit, %function
 109              	frontDerailInit:
 110              	.LFB37:
 328:.\main.c      **** 
 329:.\main.c      **** frntder frontDerailInit(uint8* dataI2C)
 330:.\main.c      **** {
 111              		.loc 1 330 0
 112              		.cfi_startproc
 113              	.LVL3:
 331:.\main.c      ****     frntder fd;
 332:.\main.c      ****     fd.position = dataI2C[0];
 114              		.loc 1 332 0
 115 0000 0B78     		ldrb	r3, [r1]
 116 0002 0370     		strb	r3, [r0]
 333:.\main.c      ****     fd.current_pos = (uint16)(dataI2C[1]<<8)|(dataI2C[2]);
 117              		.loc 1 333 0
 118 0004 4B78     		ldrb	r3, [r1, #1]
 119 0006 1B02     		lsl	r3, r3, #8
 120 0008 8A78     		ldrb	r2, [r1, #2]
 121 000a 1343     		orr	r3, r2
 122 000c 4380     		strh	r3, [r0, #2]
 334:.\main.c      ****     fd.tuned_pos[0] = (uint16)(dataI2C[3]<<8)|(dataI2C[4]);
ARM GAS  C:\Users\Henry\AppData\Local\Temp\cc3YIK1a.s 			page 9


 123              		.loc 1 334 0
 124 000e CB78     		ldrb	r3, [r1, #3]
 125 0010 1B02     		lsl	r3, r3, #8
 126 0012 0A79     		ldrb	r2, [r1, #4]
 127 0014 1343     		orr	r3, r2
 128 0016 8380     		strh	r3, [r0, #4]
 335:.\main.c      ****     fd.tuned_pos[1] = (uint16)(dataI2C[5]<<8)|(dataI2C[6]);
 129              		.loc 1 335 0
 130 0018 4B79     		ldrb	r3, [r1, #5]
 131 001a 1B02     		lsl	r3, r3, #8
 132 001c 8A79     		ldrb	r2, [r1, #6]
 133 001e 1343     		orr	r3, r2
 134 0020 C380     		strh	r3, [r0, #6]
 336:.\main.c      ****     fd.eep_offset = 0;
 135              		.loc 1 336 0
 136 0022 0023     		mov	r3, #0
 137 0024 0381     		strh	r3, [r0, #8]
 337:.\main.c      ****     return fd;
 338:.\main.c      **** }
 138              		.loc 1 338 0
 139              		@ sp needed
 140 0026 7047     		bx	lr
 141              		.cfi_endproc
 142              	.LFE37:
 143              		.size	frontDerailInit, .-frontDerailInit
 144              		.section	.text.frontDerailToData,"ax",%progbits
 145              		.align	2
 146              		.global	frontDerailToData
 147              		.code	16
 148              		.thumb_func
 149              		.type	frontDerailToData, %function
 150              	frontDerailToData:
 151              	.LFB38:
 339:.\main.c      **** 
 340:.\main.c      **** void frontDerailToData(uint8* dataI2C, frntder fd)
 341:.\main.c      **** {
 152              		.loc 1 341 0
 153              		.cfi_startproc
 154              	.LVL4:
 155 0000 10B5     		push	{r4, lr}
 156              		.cfi_def_cfa_offset 8
 157              		.cfi_offset 4, -8
 158              		.cfi_offset 14, -4
 159 0002 84B0     		sub	sp, sp, #16
 160              		.cfi_def_cfa_offset 24
 342:.\main.c      ****     dataI2C[0] = fd.position;
 161              		.loc 1 342 0
 162 0004 0170     		strb	r1, [r0]
 343:.\main.c      ****     dataI2C[1] = (uint8)(fd.current_pos >> 8);
 163              		.loc 1 343 0
 164 0006 090C     		lsr	r1, r1, #16
 165 0008 0C0A     		lsr	r4, r1, #8
 166 000a 4470     		strb	r4, [r0, #1]
 344:.\main.c      ****     dataI2C[2] = (uint8)(fd.current_pos & 0xff);
 167              		.loc 1 344 0
 168 000c 8170     		strb	r1, [r0, #2]
 345:.\main.c      ****     dataI2C[3] = (uint8)(fd.tuned_pos[0] >> 8);
ARM GAS  C:\Users\Henry\AppData\Local\Temp\cc3YIK1a.s 			page 10


 169              		.loc 1 345 0
 170 000e 93B2     		uxth	r3, r2
 171 0010 190A     		lsr	r1, r3, #8
 172 0012 C170     		strb	r1, [r0, #3]
 346:.\main.c      ****     dataI2C[4] = (uint8)(fd.tuned_pos[0] & 0xff);
 173              		.loc 1 346 0
 174 0014 0371     		strb	r3, [r0, #4]
 347:.\main.c      ****     dataI2C[5] = (uint8)(fd.tuned_pos[1] >> 8);
 175              		.loc 1 347 0
 176 0016 120C     		lsr	r2, r2, #16
 177 0018 130A     		lsr	r3, r2, #8
 178 001a 4371     		strb	r3, [r0, #5]
 348:.\main.c      ****     dataI2C[6] = (uint8)(fd.tuned_pos[1] & 0xff);
 179              		.loc 1 348 0
 180 001c 8271     		strb	r2, [r0, #6]
 349:.\main.c      **** }
 181              		.loc 1 349 0
 182 001e 04B0     		add	sp, sp, #16
 183              		@ sp needed
 184 0020 10BD     		pop	{r4, pc}
 185              		.cfi_endproc
 186              	.LFE38:
 187              		.size	frontDerailToData, .-frontDerailToData
 188 0022 C046     		.section	.text.EEPROM_Write,"ax",%progbits
 189              		.align	2
 190              		.global	EEPROM_Write
 191              		.code	16
 192              		.thumb_func
 193              		.type	EEPROM_Write, %function
 194              	EEPROM_Write:
 195              	.LFB39:
 350:.\main.c      **** 
 351:.\main.c      **** /* This function writes to an EEPROM. The offset pointer to the EEPROM is fixed by this function to
 352:.\main.c      **** To change the write location, OffsetAddress values can be changed*/
 353:.\main.c      **** void EEPROM_Write(uint8* Data, int numBytes)
 354:.\main.c      **** {
 196              		.loc 1 354 0
 197              		.cfi_startproc
 198              	.LVL5:
 199 0000 10B5     		push	{r4, lr}
 200              		.cfi_def_cfa_offset 8
 201              		.cfi_offset 4, -8
 202              		.cfi_offset 14, -4
 203 0002 84B0     		sub	sp, sp, #16
 204              		.cfi_def_cfa_offset 24
 205              	.LVL6:
 355:.\main.c      ****     
 356:.\main.c      ****     int offsetAddress[2]={0,0};
 357:.\main.c      ****     int byteCnt_w = 15;
 358:.\main.c      ****     uint8 writeData[15] = {0x00,0x00};
 206              		.loc 1 358 0
 207 0004 0023     		mov	r3, #0
 208 0006 0093     		str	r3, [sp]
 209 0008 0193     		str	r3, [sp, #4]
 210 000a 0293     		str	r3, [sp, #8]
 211 000c 6A46     		mov	r2, sp
 212 000e 9381     		strh	r3, [r2, #12]
ARM GAS  C:\Users\Henry\AppData\Local\Temp\cc3YIK1a.s 			page 11


 213 0010 9373     		strb	r3, [r2, #14]
 214              	.LVL7:
 359:.\main.c      ****     int i;
 360:.\main.c      **** 
 361:.\main.c      ****     for(i=0;i<13;i++)
 215              		.loc 1 361 0
 216 0012 0023     		mov	r3, #0
 217 0014 04E0     		b	.L12
 218              	.LVL8:
 219              	.L13:
 362:.\main.c      ****     {
 363:.\main.c      ****      writeData[i+2] = Data[i];
 220              		.loc 1 363 0 discriminator 3
 221 0016 9A1C     		add	r2, r3, #2
 222 0018 C15C     		ldrb	r1, [r0, r3]
 223 001a 6C46     		mov	r4, sp
 224 001c A154     		strb	r1, [r4, r2]
 361:.\main.c      ****     {
 225              		.loc 1 361 0 discriminator 3
 226 001e 0133     		add	r3, r3, #1
 227              	.LVL9:
 228              	.L12:
 361:.\main.c      ****     {
 229              		.loc 1 361 0 is_stmt 0 discriminator 1
 230 0020 0C2B     		cmp	r3, #12
 231 0022 F8DD     		ble	.L13
 364:.\main.c      ****     }
 365:.\main.c      **** 
 366:.\main.c      **** 	I2C_I2CMasterWriteBuf(ADDRESS1, (uint8 *) writeData, byteCnt_w,  I2C_I2C_MODE_COMPLETE_XFER );
 232              		.loc 1 366 0 is_stmt 1
 233 0024 5020     		mov	r0, #80
 234              	.LVL10:
 235 0026 6946     		mov	r1, sp
 236 0028 0F22     		mov	r2, #15
 237 002a 0023     		mov	r3, #0
 238              	.LVL11:
 239 002c FFF7FEFF 		bl	I2C_I2CMasterWriteBuf
 240              	.LVL12:
 241              	.L14:
 367:.\main.c      **** 	for(;;)
 368:.\main.c      **** 	{
 369:.\main.c      **** 		if(0u != (I2C_I2CMasterStatus() & I2C_I2C_MSTAT_WR_CMPLT))
 242              		.loc 1 369 0
 243 0030 FFF7FEFF 		bl	I2C_I2CMasterStatus
 244              	.LVL13:
 245 0034 8307     		lsl	r3, r0, #30
 246 0036 FBD5     		bpl	.L14
 370:.\main.c      **** 		{
 371:.\main.c      **** 			break;
 372:.\main.c      **** 		}
 373:.\main.c      **** 					
 374:.\main.c      **** 	}	
 375:.\main.c      **** }
 247              		.loc 1 375 0
 248 0038 04B0     		add	sp, sp, #16
 249              		@ sp needed
 250 003a 10BD     		pop	{r4, pc}
ARM GAS  C:\Users\Henry\AppData\Local\Temp\cc3YIK1a.s 			page 12


 251              		.cfi_endproc
 252              	.LFE39:
 253              		.size	EEPROM_Write, .-EEPROM_Write
 254              		.section	.text.EEPROM_Read,"ax",%progbits
 255              		.align	2
 256              		.global	EEPROM_Read
 257              		.code	16
 258              		.thumb_func
 259              		.type	EEPROM_Read, %function
 260              	EEPROM_Read:
 261              	.LFB40:
 376:.\main.c      **** 
 377:.\main.c      **** /* This fuction reads data from the EEPROM from offset pointer location 0x00, 0x00. The value of 
 378:.\main.c      **** offsetAddress1 can be changed to read from  a different location of the EEPROM */
 379:.\main.c      **** void EEPROM_Read(uint8* Data, int numBytes)
 380:.\main.c      **** {
 262              		.loc 1 380 0
 263              		.cfi_startproc
 264              	.LVL14:
 265 0000 10B5     		push	{r4, lr}
 266              		.cfi_def_cfa_offset 8
 267              		.cfi_offset 4, -8
 268              		.cfi_offset 14, -4
 269 0002 82B0     		sub	sp, sp, #8
 270              		.cfi_def_cfa_offset 16
 271 0004 041C     		mov	r4, r0
 381:.\main.c      **** 
 382:.\main.c      ****     int offsetAddress[2]={0,0};
 272              		.loc 1 382 0
 273 0006 0023     		mov	r3, #0
 274 0008 0093     		str	r3, [sp]
 275 000a 0193     		str	r3, [sp, #4]
 276              	.LVL15:
 383:.\main.c      **** 	int byteCnt_w = 2;
 384:.\main.c      **** 	I2C_I2CMasterWriteBuf(ADDRESS1, (uint8 *) offsetAddress, byteCnt_w, I2C_I2C_MODE_NO_STOP );
 277              		.loc 1 384 0
 278 000c 5020     		mov	r0, #80
 279              	.LVL16:
 280 000e 6946     		mov	r1, sp
 281              	.LVL17:
 282 0010 0222     		mov	r2, #2
 283 0012 0233     		add	r3, r3, #2
 284 0014 FFF7FEFF 		bl	I2C_I2CMasterWriteBuf
 285              	.LVL18:
 286              	.L16:
 385:.\main.c      **** 	for(;;)
 386:.\main.c      **** 	{
 387:.\main.c      **** 		if(0u != (I2C_I2CMasterStatus() & I2C_I2C_MSTAT_WR_CMPLT))
 287              		.loc 1 387 0
 288 0018 FFF7FEFF 		bl	I2C_I2CMasterStatus
 289              	.LVL19:
 290 001c 8307     		lsl	r3, r0, #30
 291 001e FBD5     		bpl	.L16
 292              	.LVL20:
 388:.\main.c      **** 		{
 389:.\main.c      **** 			break;
 390:.\main.c      **** 		}		
ARM GAS  C:\Users\Henry\AppData\Local\Temp\cc3YIK1a.s 			page 13


 391:.\main.c      **** 	}	
 392:.\main.c      **** 	numBytes = 13;
 393:.\main.c      **** 	I2C_I2CMasterReadBuf(ADDRESS1, (uint8 *) Data, numBytes, I2C_I2C_MODE_REPEAT_START ); 
 293              		.loc 1 393 0
 294 0020 5020     		mov	r0, #80
 295 0022 211C     		mov	r1, r4
 296 0024 0D22     		mov	r2, #13
 297 0026 0123     		mov	r3, #1
 298 0028 FFF7FEFF 		bl	I2C_I2CMasterReadBuf
 299              	.LVL21:
 300              	.L17:
 394:.\main.c      **** 
 395:.\main.c      **** 	for(;;)
 396:.\main.c      **** 	{
 397:.\main.c      **** 		if(0u != (I2C_I2CMasterStatus() & I2C_I2C_MSTAT_RD_CMPLT))
 301              		.loc 1 397 0
 302 002c FFF7FEFF 		bl	I2C_I2CMasterStatus
 303              	.LVL22:
 304 0030 C307     		lsl	r3, r0, #31
 305 0032 FBD5     		bpl	.L17
 398:.\main.c      **** 		{
 399:.\main.c      **** 			break;
 400:.\main.c      **** 		}
 401:.\main.c      **** 	}
 402:.\main.c      **** }
 306              		.loc 1 402 0
 307 0034 02B0     		add	sp, sp, #8
 308              		@ sp needed
 309              	.LVL23:
 310 0036 10BD     		pop	{r4, pc}
 311              		.cfi_endproc
 312              	.LFE40:
 313              		.size	EEPROM_Read, .-EEPROM_Read
 314              		.section	.text.main,"ax",%progbits
 315              		.align	2
 316              		.global	main
 317              		.code	16
 318              		.thumb_func
 319              		.type	main, %function
 320              	main:
 321              	.LFB35:
  54:.\main.c      ****     int mode = 0;
 322              		.loc 1 54 0
 323              		.cfi_startproc
 324 0000 70B5     		push	{r4, r5, r6, lr}
 325              		.cfi_def_cfa_offset 16
 326              		.cfi_offset 4, -16
 327              		.cfi_offset 5, -12
 328              		.cfi_offset 6, -8
 329              		.cfi_offset 14, -4
 330 0002 8AB0     		sub	sp, sp, #40
 331              		.cfi_def_cfa_offset 56
 332              	.LVL24:
  58:.\main.c      ****     
 333              		.loc 1 58 0
 334 0004 0023     		mov	r3, #0
 335 0006 0593     		str	r3, [sp, #20]
ARM GAS  C:\Users\Henry\AppData\Local\Temp\cc3YIK1a.s 			page 14


 336 0008 0693     		str	r3, [sp, #24]
 337 000a 0793     		str	r3, [sp, #28]
 338 000c 0893     		str	r3, [sp, #32]
 339 000e 0993     		str	r3, [sp, #36]
  74:.\main.c      ****     
 340              		.loc 1 74 0
 341 0010 5B48     		ldr	r0, .L28
 342 0012 FFF7FEFF 		bl	shifter_isr_StartEx
 343              	.LVL25:
  76:.\main.c      **** 
 344              		.loc 1 76 0
 345              	@ 76 ".\main.c" 1
 346 0016 62B6     		CPSIE   i
 347              	@ 0 "" 2
  80:.\main.c      ****     UART_UartPutString("PSoC UART Communication Established\n\r");
 348              		.loc 1 80 0
 349              		.code	16
 350 0018 FFF7FEFF 		bl	UART_Start
 351              	.LVL26:
  81:.\main.c      ****     
 352              		.loc 1 81 0
 353 001c 5948     		ldr	r0, .L28+4
 354 001e FFF7FEFF 		bl	UART_UartPutString
 355              	.LVL27:
  83:.\main.c      ****     
 356              		.loc 1 83 0
 357 0022 FFF7FEFF 		bl	I2C_Start
 358              	.LVL28:
  86:.\main.c      ****     PWM_WriteCompare1(255u);
 359              		.loc 1 86 0
 360 0026 FFF7FEFF 		bl	PWM_Start
 361              	.LVL29:
  87:.\main.c      ****     PWM_WriteCompare2(255u);
 362              		.loc 1 87 0
 363 002a FF20     		mov	r0, #255
 364 002c FFF7FEFF 		bl	PWM_WriteCompare1
 365              	.LVL30:
  88:.\main.c      ****     
 366              		.loc 1 88 0
 367 0030 FF20     		mov	r0, #255
 368 0032 FFF7FEFF 		bl	PWM_WriteCompare2
 369              	.LVL31:
  91:.\main.c      ****     QuadDec_TriggerCommand(QuadDec_MASK, QuadDec_CMD_RELOAD);  
 370              		.loc 1 91 0
 371 0036 FFF7FEFF 		bl	QuadDec_Start
 372              	.LVL32:
  92:.\main.c      ****         
 373              		.loc 1 92 0
 374 003a 0120     		mov	r0, #1
 375 003c 0821     		mov	r1, #8
 376 003e FFF7FEFF 		bl	QuadDec_TriggerCommand
 377              	.LVL33:
  94:.\main.c      ****     ADC_SAR_SEQ_StartConvert();
 378              		.loc 1 94 0
 379 0042 FFF7FEFF 		bl	ADC_SAR_SEQ_Start
 380              	.LVL34:
  95:.\main.c      ****     
ARM GAS  C:\Users\Henry\AppData\Local\Temp\cc3YIK1a.s 			page 15


 381              		.loc 1 95 0
 382 0046 FFF7FEFF 		bl	ADC_SAR_SEQ_StartConvert
 383              	.LVL35:
  98:.\main.c      ****     
 384              		.loc 1 98 0
 385 004a 05A8     		add	r0, sp, #20
 386 004c 0721     		mov	r1, #7
 387 004e FFF7FEFF 		bl	EEPROM_Read
 388              	.LVL36:
 101:.\main.c      ****     
 389              		.loc 1 101 0
 390 0052 02AC     		add	r4, sp, #8
 391 0054 201C     		mov	r0, r4
 392 0056 05A9     		add	r1, sp, #20
 393 0058 FFF7FEFF 		bl	frontDerailInit
 394              	.LVL37:
 103:.\main.c      ****     UART_UartPutString(bufferUART);
 395              		.loc 1 103 0
 396 005c 2278     		ldrb	r2, [r4]
 397 005e 6388     		ldrh	r3, [r4, #2]
 398 0060 A088     		ldrh	r0, [r4, #4]
 399 0062 E188     		ldrh	r1, [r4, #6]
 400 0064 0090     		str	r0, [sp]
 401 0066 0191     		str	r1, [sp, #4]
 402 0068 05A8     		add	r0, sp, #20
 403 006a 4749     		ldr	r1, .L28+8
 404 006c FFF7FEFF 		bl	sprintf
 405              	.LVL38:
 104:.\main.c      ****     
 406              		.loc 1 104 0
 407 0070 05A8     		add	r0, sp, #20
 408 0072 FFF7FEFF 		bl	UART_UartPutString
 409              	.LVL39:
 109:.\main.c      ****     {
 410              		.loc 1 109 0
 411 0076 7DE0     		b	.L19
 412              	.L25:
 116:.\main.c      ****             {
 413              		.loc 1 116 0
 414 0078 02AB     		add	r3, sp, #8
 415 007a 1C78     		ldrb	r4, [r3]
 416 007c 002C     		cmp	r4, #0
 417 007e 0BD0     		beq	.L20
 118:.\main.c      ****                 frontd.position= 1;
 418              		.loc 1 118 0
 419 0080 4248     		ldr	r0, .L28+12
 420 0082 FFF7FEFF 		bl	UART_UartPutString
 421              	.LVL40:
 119:.\main.c      ****                 shift_isr_status &= 0xC;
 422              		.loc 1 119 0
 423 0086 0122     		mov	r2, #1
 424 0088 02AB     		add	r3, sp, #8
 425 008a 1A70     		strb	r2, [r3]
 120:.\main.c      ****             }
 426              		.loc 1 120 0
 427 008c 404A     		ldr	r2, .L28+16
 428 008e 0C23     		mov	r3, #12
ARM GAS  C:\Users\Henry\AppData\Local\Temp\cc3YIK1a.s 			page 16


 429 0090 1168     		ldr	r1, [r2]
 430 0092 0B40     		and	r3, r1
 431 0094 1360     		str	r3, [r2]
 432 0096 25E0     		b	.L21
 433              	.L20:
 124:.\main.c      ****                 if(QuadDec_ReadCounter() >= frontd.tuned_pos[1])
 434              		.loc 1 124 0
 435 0098 0120     		mov	r0, #1
 436 009a FFF7FEFF 		bl	front_motor_Write
 437              	.LVL41:
 125:.\main.c      ****                 {  
 438              		.loc 1 125 0
 439 009e FFF7FEFF 		bl	QuadDec_ReadCounter
 440              	.LVL42:
 441 00a2 02AB     		add	r3, sp, #8
 442 00a4 DD88     		ldrh	r5, [r3, #6]
 443 00a6 A842     		cmp	r0, r5
 444 00a8 1CD3     		bcc	.L21
 127:.\main.c      ****                     frontd.current_pos = QuadDec_ReadCounter();
 445              		.loc 1 127 0
 446 00aa 0020     		mov	r0, #0
 447 00ac FFF7FEFF 		bl	front_motor_Write
 448              	.LVL43:
 128:.\main.c      ****                     shift_isr_status &= 0xC;
 449              		.loc 1 128 0
 450 00b0 FFF7FEFF 		bl	QuadDec_ReadCounter
 451              	.LVL44:
 452 00b4 86B2     		uxth	r6, r0
 453 00b6 02AA     		add	r2, sp, #8
 454 00b8 5680     		strh	r6, [r2, #2]
 129:.\main.c      ****                     frontd.position ++;
 455              		.loc 1 129 0
 456 00ba 3549     		ldr	r1, .L28+16
 457 00bc 0C23     		mov	r3, #12
 458 00be 0868     		ldr	r0, [r1]
 459 00c0 0340     		and	r3, r0
 460 00c2 0B60     		str	r3, [r1]
 130:.\main.c      ****                     
 461              		.loc 1 130 0
 462 00c4 0134     		add	r4, r4, #1
 463 00c6 E4B2     		uxtb	r4, r4
 464 00c8 1470     		strb	r4, [r2]
 132:.\main.c      ****                     sprintf(bufferUART, "%d, %d, %d\n\r", frontd.position, frontd.current_pos, fron
 465              		.loc 1 132 0
 466 00ca 3248     		ldr	r0, .L28+20
 467 00cc FFF7FEFF 		bl	UART_UartPutString
 468              	.LVL45:
 133:.\main.c      ****                     UART_UartPutString(bufferUART);
 469              		.loc 1 133 0
 470 00d0 0095     		str	r5, [sp]
 471 00d2 05A8     		add	r0, sp, #20
 472 00d4 3049     		ldr	r1, .L28+24
 473 00d6 221C     		mov	r2, r4
 474 00d8 331C     		mov	r3, r6
 475 00da FFF7FEFF 		bl	sprintf
 476              	.LVL46:
 134:.\main.c      ****                 }         
ARM GAS  C:\Users\Henry\AppData\Local\Temp\cc3YIK1a.s 			page 17


 477              		.loc 1 134 0
 478 00de 05A8     		add	r0, sp, #20
 479 00e0 FFF7FEFF 		bl	UART_UartPutString
 480              	.LVL47:
 481              	.L21:
 137:.\main.c      ****             EEPROM_Write(dataI2C, 7);
 482              		.loc 1 137 0
 483 00e4 05A8     		add	r0, sp, #20
 484 00e6 0299     		ldr	r1, [sp, #8]
 485 00e8 039A     		ldr	r2, [sp, #12]
 486 00ea 049B     		ldr	r3, [sp, #16]
 487 00ec FFF7FEFF 		bl	frontDerailToData
 488              	.LVL48:
 138:.\main.c      ****         } 
 489              		.loc 1 138 0
 490 00f0 05A8     		add	r0, sp, #20
 491 00f2 0721     		mov	r1, #7
 492 00f4 FFF7FEFF 		bl	EEPROM_Write
 493              	.LVL49:
 494 00f8 3CE0     		b	.L19
 495              	.L27:
 141:.\main.c      ****         {
 496              		.loc 1 141 0
 497 00fa 9A07     		lsl	r2, r3, #30
 498 00fc 3AD5     		bpl	.L19
 143:.\main.c      ****             {
 499              		.loc 1 143 0
 500 00fe 02AA     		add	r2, sp, #8
 501 0100 1478     		ldrb	r4, [r2]
 502 0102 002C     		cmp	r4, #0
 503 0104 06D1     		bne	.L23
 145:.\main.c      ****                 shift_isr_status &= 0xC;
 504              		.loc 1 145 0
 505 0106 0021     		mov	r1, #0
 506 0108 1170     		strb	r1, [r2]
 146:.\main.c      ****             }
 507              		.loc 1 146 0
 508 010a 0C22     		mov	r2, #12
 509 010c 1340     		and	r3, r2
 510 010e 204A     		ldr	r2, .L28+16
 511 0110 1360     		str	r3, [r2]
 512 0112 2FE0     		b	.L19
 513              	.L23:
 150:.\main.c      ****                 if (QuadDec_ReadCounter() <= frontd.tuned_pos[0])
 514              		.loc 1 150 0
 515 0114 0220     		mov	r0, #2
 516 0116 FFF7FEFF 		bl	front_motor_Write
 517              	.LVL50:
 151:.\main.c      ****                 {
 518              		.loc 1 151 0
 519 011a FFF7FEFF 		bl	QuadDec_ReadCounter
 520              	.LVL51:
 521 011e 02AB     		add	r3, sp, #8
 522 0120 9D88     		ldrh	r5, [r3, #4]
 523 0122 A842     		cmp	r0, r5
 524 0124 1CD8     		bhi	.L24
 153:.\main.c      ****                     frontd.current_pos = QuadDec_ReadCounter();
ARM GAS  C:\Users\Henry\AppData\Local\Temp\cc3YIK1a.s 			page 18


 525              		.loc 1 153 0
 526 0126 0020     		mov	r0, #0
 527 0128 FFF7FEFF 		bl	front_motor_Write
 528              	.LVL52:
 154:.\main.c      ****                     shift_isr_status &= 0xC;
 529              		.loc 1 154 0
 530 012c FFF7FEFF 		bl	QuadDec_ReadCounter
 531              	.LVL53:
 532 0130 86B2     		uxth	r6, r0
 533 0132 02AA     		add	r2, sp, #8
 534 0134 5680     		strh	r6, [r2, #2]
 155:.\main.c      ****                     frontd.position --;
 535              		.loc 1 155 0
 536 0136 1649     		ldr	r1, .L28+16
 537 0138 0C23     		mov	r3, #12
 538 013a 0868     		ldr	r0, [r1]
 539 013c 0340     		and	r3, r0
 540 013e 0B60     		str	r3, [r1]
 156:.\main.c      ****                     
 541              		.loc 1 156 0
 542 0140 013C     		sub	r4, r4, #1
 543 0142 E4B2     		uxtb	r4, r4
 544 0144 1470     		strb	r4, [r2]
 158:.\main.c      ****                     sprintf(bufferUART, "%d, %d, %d\n\r", frontd.position, frontd.current_pos, fron
 545              		.loc 1 158 0
 546 0146 1548     		ldr	r0, .L28+28
 547 0148 FFF7FEFF 		bl	UART_UartPutString
 548              	.LVL54:
 159:.\main.c      ****                     UART_UartPutString(bufferUART);
 549              		.loc 1 159 0
 550 014c 0095     		str	r5, [sp]
 551 014e 05A8     		add	r0, sp, #20
 552 0150 1149     		ldr	r1, .L28+24
 553 0152 221C     		mov	r2, r4
 554 0154 331C     		mov	r3, r6
 555 0156 FFF7FEFF 		bl	sprintf
 556              	.LVL55:
 160:.\main.c      ****                 }
 557              		.loc 1 160 0
 558 015a 05A8     		add	r0, sp, #20
 559 015c FFF7FEFF 		bl	UART_UartPutString
 560              	.LVL56:
 561              	.L24:
 162:.\main.c      ****                 EEPROM_Write(dataI2C, 7);
 562              		.loc 1 162 0
 563 0160 05A8     		add	r0, sp, #20
 564 0162 0299     		ldr	r1, [sp, #8]
 565 0164 039A     		ldr	r2, [sp, #12]
 566 0166 049B     		ldr	r3, [sp, #16]
 567 0168 FFF7FEFF 		bl	frontDerailToData
 568              	.LVL57:
 163:.\main.c      ****             } 
 569              		.loc 1 163 0
 570 016c 05A8     		add	r0, sp, #20
 571 016e 0721     		mov	r1, #7
 572 0170 FFF7FEFF 		bl	EEPROM_Write
 573              	.LVL58:
ARM GAS  C:\Users\Henry\AppData\Local\Temp\cc3YIK1a.s 			page 19


 574              	.L19:
 114:.\main.c      ****         { 
 575              		.loc 1 114 0
 576 0174 064B     		ldr	r3, .L28+16
 577 0176 1B68     		ldr	r3, [r3]
 578 0178 DA07     		lsl	r2, r3, #31
 579 017a 00D5     		bpl	.LCB522
 580 017c 7CE7     		b	.L25	@long jump
 581              	.LCB522:
 582 017e BCE7     		b	.L27
 583              	.L29:
 584              		.align	2
 585              	.L28:
 586 0180 00000000 		.word	Shifter_ISR
 587 0184 14000000 		.word	.LC4
 588 0188 3C000000 		.word	.LC6
 589 018c 50000000 		.word	.LC8
 590 0190 00000000 		.word	.LANCHOR0
 591 0194 58000000 		.word	.LC11
 592 0198 64000000 		.word	.LC13
 593 019c 74000000 		.word	.LC15
 594              		.cfi_endproc
 595              	.LFE35:
 596              		.size	main, .-main
 597              		.global	bufferUART
 598              		.global	shift_isr_status
 599              		.section	.rodata.str1.4,"aMS",%progbits,1
 600              		.align	2
 601              	.LC1:
 602 0000 434F4D4D 		.ascii	"COMMAND UNKNOWN!\012\015\000"
 602      414E4420 
 602      554E4B4E 
 602      4F574E21 
 602      0A0D00
 603 0013 00       		.space	1
 604              	.LC4:
 605 0014 50536F43 		.ascii	"PSoC UART Communication Established\012\015\000"
 605      20554152 
 605      5420436F 
 605      6D6D756E 
 605      69636174 
 606 003a 0000     		.space	2
 607              	.LC6:
 608 003c 25642C20 		.ascii	"%d, %d, %d, %d\012\015\000"
 608      25642C20 
 608      25642C20 
 608      25640A0D 
 608      00
 609 004d 000000   		.space	3
 610              	.LC8:
 611 0050 48490A0D 		.ascii	"HI\012\015\000"
 611      00
 612 0055 000000   		.space	3
 613              	.LC11:
 614 0058 46524F4E 		.ascii	"FRONT UP\012\015\000"
 614      54205550 
 614      0A0D00
ARM GAS  C:\Users\Henry\AppData\Local\Temp\cc3YIK1a.s 			page 20


 615 0063 00       		.space	1
 616              	.LC13:
 617 0064 25642C20 		.ascii	"%d, %d, %d\012\015\000"
 617      25642C20 
 617      25640A0D 
 617      00
 618 0071 000000   		.space	3
 619              	.LC15:
 620 0074 46524F4E 		.ascii	"FRONT DN\012\015\000"
 620      5420444E 
 620      0A0D00
 621 007f 00       		.bss
 622              		.align	2
 623              		.set	.LANCHOR0,. + 0
 624              		.type	shift_isr_status, %object
 625              		.size	shift_isr_status, 4
 626              	shift_isr_status:
 627 0000 00000000 		.space	4
 628              		.type	bufferUART, %object
 629              		.size	bufferUART, 20
 630              	bufferUART:
 631 0004 00000000 		.space	20
 631      00000000 
 631      00000000 
 631      00000000 
 631      00000000 
 632              		.text
 633              	.Letext0:
 634              		.file 2 "Generated_Source\\PSoC4/cytypes.h"
 635              		.file 3 "Generated_Source\\PSoC4/shifter_switches.h"
 636              		.file 4 "Generated_Source\\PSoC4/I2C_I2C.h"
 637              		.file 5 "Generated_Source\\PSoC4/UART_SPI_UART.h"
 638              		.file 6 "Generated_Source\\PSoC4/shifter_isr.h"
 639              		.file 7 "Generated_Source\\PSoC4/UART.h"
 640              		.file 8 "Generated_Source\\PSoC4/I2C.h"
 641              		.file 9 "Generated_Source\\PSoC4/PWM.h"
 642              		.file 10 "Generated_Source\\PSoC4/QuadDec.h"
 643              		.file 11 "Generated_Source\\PSoC4/ADC_SAR_SEQ.h"
 644              		.file 12 "c:\\program files (x86)\\cypress\\psoc creator\\3.3\\psoc creator\\import\\gnu\\arm\\4.9
 645              		.file 13 "Generated_Source\\PSoC4/front_motor.h"